target datalayout = "e-m:e-p270:32:32-p271:32:32-p272:64:64-i64:64-i128:128-f80:128-n8:16:32:64-S128"
target triple = "x86_64-pc-linux-gnu"

%"class.open3d::core::Tensor" = type { %"class.open3d::core::IsDevice", %"class.open3d::core::SizeVector", %"class.open3d::core::SizeVector", ptr, %"class.open3d::core::Dtype", %"class.std::shared_ptr" }
%"class.open3d::core::IsDevice" = type { ptr }
%"class.open3d::core::SizeVector" = type { %"class.open3d::core::SmallVector" }
%"class.open3d::core::SmallVector" = type { %"class.open3d::core::SmallVectorImpl", %"struct.open3d::core::SmallVectorStorage" }
%"class.open3d::core::SmallVectorImpl" = type { %"class.open3d::core::SmallVectorTemplateBase" }
%"class.open3d::core::SmallVectorTemplateBase" = type { %"class.open3d::core::SmallVectorTemplateCommon" }
%"class.open3d::core::SmallVectorTemplateCommon" = type { %"class.open3d::core::SmallVectorBase" }
%"class.open3d::core::SmallVectorBase" = type { ptr, i32, i32 }
%"struct.open3d::core::SmallVectorStorage" = type { [32 x i8] }
%"class.open3d::core::Dtype" = type { i32, i64, [16 x i8] }
%"class.std::shared_ptr" = type { %"class.std::__shared_ptr" }
%"class.std::__shared_ptr" = type { ptr, %"class.std::__shared_count" }
%"class.std::__shared_count" = type { ptr }
%"class.open3d::core::Device" = type { i32, i32 }

@.str = private unnamed_addr constant [126 x i8] c"generated/home/dtcxzyw/WorkSpace/Projects/compilers/llvm-opt-benchmark/bench/open3d/Open3D/cpp/open3d/core/TensorFunction.cpp\00", align 1
@__PRETTY_FUNCTION__._ZN6open3d4core7MinimumERKNS0_6TensorES3_ = private unnamed_addr constant [61 x i8] c"Tensor open3d::core::Minimum(const Tensor &, const Tensor &)\00", align 1

; Function Attrs: mustprogress nounwind ssp uwtable
define linkonce_odr noundef ptr @_ZNK6open3d4core25SmallVectorTemplateCommonIlvE10getFirstElEv(ptr noundef nonnull align 8 dereferenceable(16) %0) #4 comdat align 2 {
  %2 = alloca ptr, align 8
  store ptr %0, ptr %2, align 8, !tbaa !223
  %3 = load ptr, ptr %2, align 8
  %4 = getelementptr inbounds nuw i8, ptr %3, i64 16
  ret ptr %4
}

; Function Attrs: mustprogress ssp uwtable
define linkonce_odr noundef zeroext i1 @_ZNK6open3d4core25SmallVectorTemplateCommonIlvE7isSmallEv(ptr noundef nonnull align 8 dereferenceable(16) %0) #3 comdat align 2 {
  %2 = alloca ptr, align 8
  store ptr %0, ptr %2, align 8, !tbaa !223
  %3 = load ptr, ptr %2, align 8
  %4 = getelementptr inbounds nuw %"class.open3d::core::SmallVectorBase", ptr %3, i32 0, i32 0
  %5 = load ptr, ptr %4, align 8, !tbaa !225
  %6 = call noundef ptr @_ZNK6open3d4core25SmallVectorTemplateCommonIlvE10getFirstElEv(ptr noundef nonnull align 8 dereferenceable(16) %3)
  %7 = icmp eq ptr %5, %6
  ret i1 %7
}

; Function Attrs: mustprogress nounwind ssp uwtable
define linkonce_odr noundef i64 @_ZNK6open3d4core15SmallVectorBaseIjE4sizeEv(ptr noundef nonnull align 8 dereferenceable(16) %0) #4 comdat align 2 {
  %2 = alloca ptr, align 8
  store ptr %0, ptr %2, align 8, !tbaa !229
  %3 = load ptr, ptr %2, align 8
  %4 = getelementptr inbounds nuw %"class.open3d::core::SmallVectorBase", ptr %3, i32 0, i32 1
  %5 = load i32, ptr %4, align 8, !tbaa !231
  %6 = zext i32 %5 to i64
  ret i64 %6
}

; Function Attrs: noinline noreturn nounwind ssp uwtable
define linkonce_odr hidden void @__clang_call_terminate(ptr noundef %0) #14 comdat {
  %2 = call ptr @__cxa_begin_catch(ptr %0) #6
  call void @_ZSt9terminatev() #30
  unreachable
}

; Function Attrs: mustprogress nounwind ssp uwtable
define linkonce_odr void @_ZN6open3d4core15SmallVectorImplIlED2Ev(ptr noundef nonnull align 8 dereferenceable(16) %0) unnamed_addr #4 comdat align 2 personality ptr @__gxx_personality_v0 {
  %2 = alloca ptr, align 8
  store ptr %0, ptr %2, align 8, !tbaa !227
  %3 = load ptr, ptr %2, align 8
  %4 = invoke noundef zeroext i1 @_ZNK6open3d4core25SmallVectorTemplateCommonIlvE7isSmallEv(ptr noundef nonnull align 8 dereferenceable(16) %3)
          to label %5 unwind label %9

5:                                                ; preds = %1
  br i1 %4, label %8, label %6

6:                                                ; preds = %5
  %7 = call noundef ptr @_ZN6open3d4core25SmallVectorTemplateCommonIlvE5beginEv(ptr noundef nonnull align 8 dereferenceable(16) %3)
  call void @free(ptr noundef %7) #6
  br label %8

8:                                                ; preds = %6, %5
  ret void

9:                                                ; preds = %1
  %10 = landingpad { ptr, i32 }
          catch ptr null
  %11 = extractvalue { ptr, i32 } %10, 0
  call void @__clang_call_terminate(ptr %11) #30
  unreachable
}

; Function Attrs: mustprogress nounwind ssp uwtable
define linkonce_odr void @_ZN6open3d4core23SmallVectorTemplateBaseIlLb1EE13destroy_rangeEPlS3_(ptr noundef %0, ptr noundef %1) #4 comdat align 2 {
  %3 = alloca ptr, align 8
  %4 = alloca ptr, align 8
  store ptr %0, ptr %3, align 8, !tbaa !108
  store ptr %1, ptr %4, align 8, !tbaa !108
  ret void
}

; Function Attrs: mustprogress ssp uwtable
define linkonce_odr noundef ptr @_ZN6open3d4core25SmallVectorTemplateCommonIlvE3endEv(ptr noundef nonnull align 8 dereferenceable(16) %0) #3 comdat align 2 {
  %2 = alloca ptr, align 8
  store ptr %0, ptr %2, align 8, !tbaa !223
  %3 = load ptr, ptr %2, align 8
  %4 = call noundef ptr @_ZN6open3d4core25SmallVectorTemplateCommonIlvE5beginEv(ptr noundef nonnull align 8 dereferenceable(16) %3)
  %5 = call noundef i64 @_ZNK6open3d4core15SmallVectorBaseIjE4sizeEv(ptr noundef nonnull align 8 dereferenceable(16) %3)
  %6 = getelementptr inbounds nuw i64, ptr %4, i64 %5
  ret ptr %6
}

; Function Attrs: mustprogress nounwind ssp uwtable
define linkonce_odr noundef ptr @_ZN6open3d4core25SmallVectorTemplateCommonIlvE5beginEv(ptr noundef nonnull align 8 dereferenceable(16) %0) #4 comdat align 2 {
  %2 = alloca ptr, align 8
  store ptr %0, ptr %2, align 8, !tbaa !223
  %3 = load ptr, ptr %2, align 8
  %4 = getelementptr inbounds nuw %"class.open3d::core::SmallVectorBase", ptr %3, i32 0, i32 0
  %5 = load ptr, ptr %4, align 8, !tbaa !225
  ret ptr %5
}

; Function Attrs: mustprogress nounwind ssp uwtable
define linkonce_odr void @_ZN6open3d4core11SmallVectorIlLj4EED2Ev(ptr noundef nonnull align 8 dereferenceable(48) %0) unnamed_addr #4 comdat align 2 personality ptr @__gxx_personality_v0 {
  %2 = alloca ptr, align 8
  store ptr %0, ptr %2, align 8, !tbaa !150
  %3 = load ptr, ptr %2, align 8
  %4 = invoke noundef ptr @_ZN6open3d4core25SmallVectorTemplateCommonIlvE5beginEv(ptr noundef nonnull align 8 dereferenceable(16) %3)
          to label %5 unwind label %9

5:                                                ; preds = %1
  %6 = invoke noundef ptr @_ZN6open3d4core25SmallVectorTemplateCommonIlvE3endEv(ptr noundef nonnull align 8 dereferenceable(16) %3)
          to label %7 unwind label %9

7:                                                ; preds = %5
  invoke void @_ZN6open3d4core23SmallVectorTemplateBaseIlLb1EE13destroy_rangeEPlS3_(ptr noundef %4, ptr noundef %6)
          to label %8 unwind label %9

8:                                                ; preds = %7
  call void @_ZN6open3d4core15SmallVectorImplIlED2Ev(ptr noundef nonnull align 8 dereferenceable(16) %3) #6
  ret void

9:                                                ; preds = %7, %5, %1
  %10 = landingpad { ptr, i32 }
          catch ptr null
  %11 = extractvalue { ptr, i32 } %10, 0
  call void @__clang_call_terminate(ptr %11) #30
  unreachable
}

; Function Attrs: inlinehint mustprogress ssp uwtable
define linkonce_odr void @_ZNK6open3d4core6Tensor8GetShapeEv(ptr dead_on_unwind noalias writable sret(%"class.open3d::core::SizeVector") align 8 %0, ptr noundef nonnull align 8 dereferenceable(160) %1) #17 comdat align 2 {
  %3 = alloca ptr, align 8
  %4 = alloca ptr, align 8
  store ptr %0, ptr %3, align 8
  store ptr %1, ptr %4, align 8, !tbaa !146
  %5 = load ptr, ptr %4, align 8
  %6 = getelementptr inbounds nuw %"class.open3d::core::Tensor", ptr %5, i32 0, i32 1
  call void @_ZN6open3d4core10SizeVectorC1ERKS1_(ptr noundef nonnull align 8 dereferenceable(48) %0, ptr noundef nonnull align 8 dereferenceable(48) %6)
  ret void
}

; Function Attrs: inlinehint mustprogress nounwind ssp uwtable
define linkonce_odr void @_ZNK6open3d4core6Tensor8GetDtypeEv(ptr dead_on_unwind noalias writable sret(%"class.open3d::core::Dtype") align 8 %0, ptr noundef nonnull align 8 dereferenceable(160) %1) #5 comdat align 2 {
  %3 = alloca ptr, align 8
  store ptr %1, ptr %3, align 8, !tbaa !146
  %4 = load ptr, ptr %3, align 8
  %5 = getelementptr inbounds nuw %"class.open3d::core::Tensor", ptr %4, i32 0, i32 4
  call void @llvm.memcpy.p0.p0.i64(ptr align 8 %0, ptr align 8 %5, i64 32, i1 false), !tbaa.struct !155
  ret void
}

; Function Attrs: mustprogress ssp uwtable
define void @_ZN6open3d4core7MinimumERKNS0_6TensorES3_(ptr dead_on_unwind noalias writable sret(%"class.open3d::core::Tensor") align 8 %0, ptr noundef nonnull align 8 dereferenceable(160) %1, ptr noundef nonnull align 8 dereferenceable(160) %2) #3 personality ptr @__gxx_personality_v0 {
  %4 = alloca ptr, align 8
  %5 = alloca ptr, align 8
  %6 = alloca ptr, align 8
  %7 = alloca %"class.open3d::core::Device", align 4
  %8 = alloca %"class.open3d::core::Dtype", align 8
  %9 = alloca i1, align 1
  %10 = alloca %"class.open3d::core::SizeVector", align 8
  %11 = alloca %"class.open3d::core::SizeVector", align 8
  %12 = alloca %"class.open3d::core::SizeVector", align 8
  %13 = alloca ptr, align 8
  %14 = alloca i32, align 4
  %15 = alloca %"class.open3d::core::Dtype", align 8
  %16 = alloca %"class.open3d::core::Device", align 4
  store ptr %0, ptr %4, align 8
  store ptr %1, ptr %5, align 8, !tbaa !146
  store ptr %2, ptr %6, align 8, !tbaa !146
  %17 = load ptr, ptr %5, align 8, !tbaa !146
  call void @llvm.lifetime.start.p0(i64 8, ptr %7) #6
  %18 = load ptr, ptr %6, align 8, !tbaa !146
  %19 = load ptr, ptr %18, align 8, !tbaa !148
  %20 = getelementptr inbounds ptr, ptr %19, i64 2
  %21 = load ptr, ptr %20, align 8
  %22 = call i64 %21(ptr noundef nonnull align 8 dereferenceable(160) %18)
  store i64 %22, ptr %7, align 4
  call void @_ZN6open3d4core12tensor_check19AssertTensorDevice_EPKciS3_RKNS0_6TensorERKNS0_6DeviceE(ptr noundef @.str, i32 noundef 137, ptr noundef @__PRETTY_FUNCTION__._ZN6open3d4core7MinimumERKNS0_6TensorES3_, ptr noundef nonnull align 8 dereferenceable(160) %17, ptr noundef nonnull align 4 dereferenceable(8) %7)
  call void @llvm.lifetime.end.p0(i64 8, ptr %7) #6
  %23 = load ptr, ptr %5, align 8, !tbaa !146
  call void @llvm.lifetime.start.p0(i64 32, ptr %8) #6
  %24 = load ptr, ptr %6, align 8, !tbaa !146
  call void @_ZNK6open3d4core6Tensor8GetDtypeEv(ptr dead_on_unwind writable sret(%"class.open3d::core::Dtype") align 8 %8, ptr noundef nonnull align 8 dereferenceable(160) %24)
  call void @_ZN6open3d4core12tensor_check18AssertTensorDtype_EPKciS3_RKNS0_6TensorERKNS0_5DtypeE(ptr noundef @.str, i32 noundef 138, ptr noundef @__PRETTY_FUNCTION__._ZN6open3d4core7MinimumERKNS0_6TensorES3_, ptr noundef nonnull align 8 dereferenceable(160) %23, ptr noundef nonnull align 8 dereferenceable(32) %8)
  call void @llvm.lifetime.end.p0(i64 32, ptr %8) #6
  store i1 false, ptr %9, align 1
  call void @llvm.lifetime.start.p0(i64 48, ptr %10) #6
  call void @llvm.lifetime.start.p0(i64 48, ptr %11) #6
  %25 = load ptr, ptr %5, align 8, !tbaa !146
  call void @_ZNK6open3d4core6Tensor8GetShapeEv(ptr dead_on_unwind writable sret(%"class.open3d::core::SizeVector") align 8 %11, ptr noundef nonnull align 8 dereferenceable(160) %25)
  call void @llvm.lifetime.start.p0(i64 48, ptr %12) #6
  %26 = load ptr, ptr %6, align 8, !tbaa !146
  invoke void @_ZNK6open3d4core6Tensor8GetShapeEv(ptr dead_on_unwind writable sret(%"class.open3d::core::SizeVector") align 8 %12, ptr noundef nonnull align 8 dereferenceable(160) %26)
          to label %27 unwind label %41

27:                                               ; preds = %3
  invoke void @_ZN6open3d4core10shape_util16BroadcastedShapeERKNS0_10SizeVectorES4_(ptr dead_on_unwind writable sret(%"class.open3d::core::SizeVector") align 8 %10, ptr noundef nonnull align 8 dereferenceable(48) %11, ptr noundef nonnull align 8 dereferenceable(48) %12)
          to label %28 unwind label %45

28:                                               ; preds = %27
  %29 = load ptr, ptr %5, align 8, !tbaa !146
  call void @_ZNK6open3d4core6Tensor8GetDtypeEv(ptr dead_on_unwind writable sret(%"class.open3d::core::Dtype") align 8 %15, ptr noundef nonnull align 8 dereferenceable(160) %29)
  call void @llvm.lifetime.start.p0(i64 8, ptr %16) #6
  %30 = load ptr, ptr %5, align 8, !tbaa !146
  %31 = load ptr, ptr %30, align 8, !tbaa !148
  %32 = getelementptr inbounds ptr, ptr %31, i64 2
  %33 = load ptr, ptr %32, align 8
  %34 = invoke i64 %33(ptr noundef nonnull align 8 dereferenceable(160) %30)
          to label %35 unwind label %49

35:                                               ; preds = %28
  store i64 %34, ptr %16, align 4
  invoke void @_ZN6open3d4core6TensorC2ERKNS0_10SizeVectorENS0_5DtypeERKNS0_6DeviceE(ptr noundef nonnull align 8 dereferenceable(160) %0, ptr noundef nonnull align 8 dereferenceable(48) %10, ptr noundef byval(%"class.open3d::core::Dtype") align 8 %15, ptr noundef nonnull align 4 dereferenceable(8) %16)
          to label %36 unwind label %49

36:                                               ; preds = %35
  call void @llvm.lifetime.end.p0(i64 8, ptr %16) #6
  call void @_ZN6open3d4core11SmallVectorIlLj4EED2Ev(ptr noundef nonnull align 8 dereferenceable(48) %10) #6
  call void @_ZN6open3d4core11SmallVectorIlLj4EED2Ev(ptr noundef nonnull align 8 dereferenceable(48) %12) #6
  call void @llvm.lifetime.end.p0(i64 48, ptr %12) #6
  call void @_ZN6open3d4core11SmallVectorIlLj4EED2Ev(ptr noundef nonnull align 8 dereferenceable(48) %11) #6
  call void @llvm.lifetime.end.p0(i64 48, ptr %11) #6
  call void @llvm.lifetime.end.p0(i64 48, ptr %10) #6
  %37 = load ptr, ptr %5, align 8, !tbaa !146
  %38 = load ptr, ptr %6, align 8, !tbaa !146
  invoke void @_ZN6open3d4core6kernel8BinaryEWERKNS0_6TensorES4_RS2_NS1_14BinaryEWOpCodeE(ptr noundef nonnull align 8 dereferenceable(160) %37, ptr noundef nonnull align 8 dereferenceable(160) %38, ptr noundef nonnull align 8 dereferenceable(160) %0, i32 noundef 5)
          to label %39 unwind label %55

39:                                               ; preds = %36
  store i1 true, ptr %9, align 1
  %40 = load i1, ptr %9, align 1
  br i1 %40, label %60, label %59

41:                                               ; preds = %3
  %42 = landingpad { ptr, i32 }
          cleanup
  %43 = extractvalue { ptr, i32 } %42, 0
  store ptr %43, ptr %13, align 8
  %44 = extractvalue { ptr, i32 } %42, 1
  store i32 %44, ptr %14, align 4
  br label %54

45:                                               ; preds = %27
  %46 = landingpad { ptr, i32 }
          cleanup
  %47 = extractvalue { ptr, i32 } %46, 0
  store ptr %47, ptr %13, align 8
  %48 = extractvalue { ptr, i32 } %46, 1
  store i32 %48, ptr %14, align 4
  br label %53

49:                                               ; preds = %35, %28
  %50 = landingpad { ptr, i32 }
          cleanup
  %51 = extractvalue { ptr, i32 } %50, 0
  store ptr %51, ptr %13, align 8
  %52 = extractvalue { ptr, i32 } %50, 1
  store i32 %52, ptr %14, align 4
  call void @llvm.lifetime.end.p0(i64 8, ptr %16) #6
  call void @_ZN6open3d4core11SmallVectorIlLj4EED2Ev(ptr noundef nonnull align 8 dereferenceable(48) %10) #6
  br label %53

53:                                               ; preds = %49, %45
  call void @_ZN6open3d4core11SmallVectorIlLj4EED2Ev(ptr noundef nonnull align 8 dereferenceable(48) %12) #6
  br label %54

54:                                               ; preds = %53, %41
  call void @llvm.lifetime.end.p0(i64 48, ptr %12) #6
  call void @_ZN6open3d4core11SmallVectorIlLj4EED2Ev(ptr noundef nonnull align 8 dereferenceable(48) %11) #6
  call void @llvm.lifetime.end.p0(i64 48, ptr %11) #6
  call void @llvm.lifetime.end.p0(i64 48, ptr %10) #6
  br label %61

55:                                               ; preds = %36
  %56 = landingpad { ptr, i32 }
          cleanup
  %57 = extractvalue { ptr, i32 } %56, 0
  store ptr %57, ptr %13, align 8
  %58 = extractvalue { ptr, i32 } %56, 1
  store i32 %58, ptr %14, align 4
  call void @_ZN6open3d4core6TensorD2Ev(ptr noundef nonnull align 8 dereferenceable(160) %0) #6
  br label %61

59:                                               ; preds = %39
  call void @_ZN6open3d4core6TensorD2Ev(ptr noundef nonnull align 8 dereferenceable(160) %0) #6
  br label %60

60:                                               ; preds = %59, %39
  ret void

61:                                               ; preds = %55, %54
  %62 = load ptr, ptr %13, align 8
  %63 = load i32, ptr %14, align 4
  %64 = insertvalue { ptr, i32 } poison, ptr %62, 0
  %65 = insertvalue { ptr, i32 } %64, i32 %63, 1
  resume { ptr, i32 } %65
}